; Function Attrs: mustprogress nounwind uwtable
define dso_local void @_ZNK5clang6driver13OffloadAction24doOnEachDeviceDependenceERKN4llvm12function_refIFvPNS0_6ActionEPKNS0_9ToolChainEPKcEEE(ptr noundef nonnull align 8 dereferenceable(136) %0, ptr nocapture noundef nonnull readonly align 8 dereferenceable(16) %1) local_unnamed_addr #0 align 2 {
  %3 = getelementptr inbounds nuw i8, ptr %0, i64 16
  %4 = load ptr, ptr %3, align 8
  %5 = tail call noundef i64 @_ZNK4llvm15SmallVectorBaseIjE4sizeEv(ptr noundef nonnull align 8 dereferenceable(16) %3) #11
  %.idx = shl nsw i64 %5, 3
  %6 = getelementptr inbounds i8, ptr %4, i64 %.idx
  %7 = icmp eq i64 %5, 0
  br i1 %7, label %.loopexit, label %8

8:                                                ; preds = %2
  %9 = getelementptr inbounds nuw i8, ptr %0, i64 88
  %10 = load ptr, ptr %9, align 8
  %.not = icmp eq ptr %10, null
  %spec.select.idx = select i1 %.not, i64 0, i64 8
  %.not1516 = icmp eq i64 %spec.select.idx, %.idx
  br i1 %.not1516, label %.loopexit, label %.lr.ph

.lr.ph:                                           ; preds = %8
  %spec.select = getelementptr inbounds i8, ptr %4, i64 %spec.select.idx
  %11 = getelementptr inbounds nuw i8, ptr %0, i64 96
  %12 = load ptr, ptr %11, align 8
  %13 = getelementptr inbounds nuw i8, ptr %1, i64 8
  br label %14

14:                                               ; preds = %.lr.ph, %14
  %.018 = phi ptr [ %12, %.lr.ph ], [ %22, %14 ]
  %.117 = phi ptr [ %spec.select, %.lr.ph ], [ %21, %14 ]
  %15 = load ptr, ptr %.117, align 8
  %16 = load ptr, ptr %.018, align 8
  %17 = getelementptr inbounds nuw i8, ptr %15, i64 72
  %18 = load ptr, ptr %17, align 8
  %19 = load ptr, ptr %1, align 8
  %20 = load i64, ptr %13, align 8
  tail call void %19(i64 noundef %20, ptr noundef %15, ptr noundef %16, ptr noundef %18) #11
  %21 = getelementptr inbounds i8, ptr %.117, i64 8
  %22 = getelementptr inbounds i8, ptr %.018, i64 8
  %.not15 = icmp eq ptr %21, %6
  br i1 %.not15, label %.loopexit, label %14, !llvm.loop !11

.loopexit:                                        ; preds = %14, %8, %2
  ret void
}